Certificate:
    Data:
        Version: 1 (0x0)
        Serial Number:
            2e:9e:f7:b7:c7:38:15:59:6d:57:c7:ad:85:0f:f5:ff:a8:00:65:62
        Signature Algorithm: sha256WithRSAEncryption
        Issuer: C=US, ST=WA, O=IPD, OU=RD, CN=ClientCertificateAuthority/emailAddress=deviceCa@nokia.com
        Validity
            Not Before: Oct 27 18:30:13 2023 GMT
            Not After : Oct 26 18:30:13 2024 GMT
        Subject: C=US, ST=WA, O=IPD, OU=RD, CN=ClientCert/emailAddress=server@nokia.com
        Subject Public Key Info:
            Public Key Algorithm: rsaEncryption
                Public-Key: (2048 bit)
                Modulus:
                    00:d0:49:ca:e3:a3:39:4c:3e:8c:35:5f:98:79:2c:
                    d1:0e:c6:1a:19:6f:23:b7:74:37:07:46:25:2f:27:
                    ce:04:c1:7c:68:97:a7:d6:66:fb:9b:32:c1:3c:3b:
                    11:37:fc:bb:1d:4c:37:9f:26:b4:6b:a2:02:f1:96:
                    99:bc:13:11:a1:4c:99:43:d6:53:e2:87:e2:1e:19:
                    d0:f3:9a:42:4d:dd:5f:c3:7f:a0:90:30:ac:d6:6a:
                    41:fb:18:99:64:51:12:73:38:51:8b:6b:e0:98:49:
                    4b:3f:8c:45:b5:c2:76:30:76:31:22:4a:95:76:59:
                    d0:bf:7e:d6:f4:34:5e:e2:7f:06:34:e2:7a:55:f7:
                    95:8c:aa:a6:82:4c:7e:fd:05:9f:26:03:8e:1c:cd:
                    56:f3:18:80:c8:e7:9a:34:7b:4e:04:08:a0:8f:67:
                    94:0f:ce:56:68:c8:00:83:07:3c:f7:0e:1d:7d:69:
                    3a:d1:e1:4c:fe:06:7a:91:d0:e9:5f:48:4e:79:2a:
                    bf:3e:92:ec:6e:80:d3:70:45:78:3e:f4:6d:cd:81:
                    8e:2d:e6:22:36:76:7b:b8:81:ad:4b:3c:74:c8:58:
                    e4:d0:bd:19:fe:a0:ea:ac:12:c0:13:29:b9:52:79:
                    19:49:89:a0:7f:d1:fa:e1:fa:6d:fe:f3:7d:d1:b4:
                    aa:4b
                Exponent: 65537 (0x10001)
    Signature Algorithm: sha256WithRSAEncryption
    Signature Value:
        19:96:b2:80:79:55:91:67:32:46:ca:d3:76:f8:b1:30:52:12:
        35:32:19:25:af:c1:e7:6d:21:45:d0:84:8d:22:7b:28:f8:d0:
        8c:53:0a:ab:63:92:47:54:13:4e:e3:96:1f:74:e6:d6:d9:30:
        78:fa:62:57:59:bf:0f:a3:6f:7b:c5:72:ca:17:86:c9:37:5b:
        df:48:2c:c3:02:77:96:6f:17:fc:c1:4f:66:07:df:54:e7:5e:
        27:47:f7:8f:d8:e7:a6:9b:72:01:81:f3:c8:4e:7b:b4:d1:1e:
        b7:1e:81:15:5b:4b:a3:8b:37:75:02:6f:f9:28:5e:b5:e5:3b:
        71:ca:62:fe:9f:0e:ec:1a:bf:0a:0c:28:0f:5d:db:8e:f1:0c:
        33:5b:cc:ac:55:1d:e8:b3:db:0f:1b:0c:ac:07:ed:c5:7e:6f:
        47:15:89:f3:7a:ba:e8:92:f9:9e:bf:f0:f5:bb:fe:a8:30:e0:
        23:36:22:92:49:e6:a7:8a:b9:ed:c5:ec:7c:d3:18:d3:0b:b1:
        5f:d3:ed:71:9b:6d:a8:8e:7c:51:7a:68:b2:47:29:1c:81:9c:
        9c:f0:bb:a0:ec:f0:d6:4d:71:6d:cb:04:d5:cc:d9:b1:2d:d3:
        f0:f8:2d:86:40:20:b8:0d:e1:60:3e:af:2b:fb:f9:6e:4c:01:
        a8:e3:fb:ea
-----BEGIN CERTIFICATE-----
MIIDbzCCAlcCFC6e97fHOBVZbVfHrYUP9f+oAGViMA0GCSqGSIb3DQEBCwUAMH0x
CzAJBgNVBAYTAlVTMQswCQYDVQQIDAJXQTEMMAoGA1UECgwDSVBEMQswCQYDVQQL
DAJSRDEjMCEGA1UEAwwaQ2xpZW50Q2VydGlmaWNhdGVBdXRob3JpdHkxITAfBgkq
hkiG9w0BCQEWEmRldmljZUNhQG5va2lhLmNvbTAeFw0yMzEwMjcxODMwMTNaFw0y
NDEwMjYxODMwMTNaMGsxCzAJBgNVBAYTAlVTMQswCQYDVQQIDAJXQTEMMAoGA1UE
CgwDSVBEMQswCQYDVQQLDAJSRDETMBEGA1UEAwwKQ2xpZW50Q2VydDEfMB0GCSqG
SIb3DQEJARYQc2VydmVyQG5va2lhLmNvbTCCASIwDQYJKoZIhvcNAQEBBQADggEP
ADCCAQoCggEBANBJyuOjOUw+jDVfmHks0Q7GGhlvI7d0NwdGJS8nzgTBfGiXp9Zm
+5sywTw7ETf8ux1MN58mtGuiAvGWmbwTEaFMmUPWU+KH4h4Z0POaQk3dX8N/oJAw
rNZqQfsYmWRREnM4UYtr4JhJSz+MRbXCdjB2MSJKlXZZ0L9+1vQ0XuJ/BjTielX3
lYyqpoJMfv0FnyYDjhzNVvMYgMjnmjR7TgQIoI9nlA/OVmjIAIMHPPcOHX1pOtHh
TP4GepHQ6V9ITnkqvz6S7G6A03BFeD70bc2Bji3mIjZ2e7iBrUs8dMhY5NC9Gf6g
6qwSwBMpuVJ5GUmJoH/R+uH6bf7zfdG0qksCAwEAATANBgkqhkiG9w0BAQsFAAOC
AQEAGZaygHlVkWcyRsrTdvixMFISNTIZJa/B520hRdCEjSJ7KPjQjFMKq2OSR1QT
TuOWH3Tm1tkwePpiV1m/D6Nve8VyyheGyTdb30gswwJ3lm8X/MFPZgffVOdeJ0f3
j9jnpptyAYHzyE57tNEetx6BFVtLo4s3dQJv+SheteU7ccpi/p8O7Bq/CgwoD13b
jvEMM1vMrFUd6LPbDxsMrAftxX5vRxWJ83q66JL5nr/w9bv+qDDgIzYikknmp4q5
7cXsfNMY0wuxX9PtcZttqI58UXposkcpHIGcnPC7oOzw1k1xbcsE1czZsS3T8Pgt
hkAguA3hYD6vK/v5bkwBqOP76g==
-----END CERTIFICATE-----
