Certificate:
    Data:
        Version: 3 (0x2)
        Serial Number:
            33:c6:f2:21:83:fc:ce:f7:77:de:ae:cf:6d:b4:73:b8:e7:ad:b5:43
        Signature Algorithm: sha256WithRSAEncryption
        Issuer: C=US, ST=WA, O=IPD, OU=RD, CN=DeviceCertificateAuthority/emailAddress=deviceCa@nokia.com
        Validity
            Not Before: Oct 27 18:30:12 2023 GMT
            Not After : Oct 26 18:30:12 2024 GMT
        Subject: C=US, ST=WA, O=IPD, OU=RD, CN=ServerCert/emailAddress=server@nokia.com
        Subject Public Key Info:
            Public Key Algorithm: rsaEncryption
                Public-Key: (2048 bit)
                Modulus:
                    00:ba:c2:d5:5d:02:25:8a:c4:ec:a2:fb:9c:94:fc:
                    32:21:54:e3:1d:cd:e4:a6:0a:e8:3d:b9:5c:6d:5e:
                    b9:58:49:d5:a4:bb:06:31:11:4a:ac:46:43:0b:4f:
                    2b:d0:66:20:f4:e0:8d:e2:5f:2a:46:23:19:d5:3a:
                    94:6c:b8:1b:63:6c:a3:4c:82:b7:74:54:c5:56:3f:
                    47:ed:6e:e3:a7:c1:a0:a7:2f:b4:b1:40:4c:d2:81:
                    88:fc:f5:ea:3b:8a:8d:e3:eb:2a:17:26:5a:6b:82:
                    11:56:42:8d:35:49:a4:70:45:56:49:6a:5f:e4:83:
                    c9:15:07:3c:bc:4f:ee:37:31:b6:7b:81:5e:f5:75:
                    c1:04:af:dc:6c:4a:8c:cb:bc:ed:30:6c:53:11:5e:
                    92:9b:d4:00:f4:0c:90:21:ce:bd:52:ce:27:85:81:
                    21:74:44:f3:a9:46:a4:8c:4e:27:1c:9d:12:80:c1:
                    59:64:36:5e:f4:7e:ac:13:b0:c7:bb:ff:39:52:7c:
                    a5:56:17:2b:79:8c:bf:34:c0:6d:78:37:45:f5:d4:
                    3e:37:dc:76:da:b3:84:72:12:62:8d:54:82:43:82:
                    01:0f:0b:4f:e4:9c:70:0b:45:b9:a0:e7:7b:39:cc:
                    7b:aa:09:8e:0b:0b:23:15:fb:9d:65:35:14:21:9a:
                    90:ed
                Exponent: 65537 (0x10001)
        X509v3 extensions:
            X509v3 Subject Alternative Name: 
                IP Address:172.20.20.21, IP Address:172.20.20.22, IP Address:172.20.20.99
            X509v3 Subject Key Identifier: 
                0A:02:BA:5F:7F:95:38:DB:27:00:8F:67:34:95:F0:EB:37:32:FA:28
            X509v3 Authority Key Identifier: 
                DirName:/C=US/ST=WA/O=IPD/OU=RD/CN=DeviceCertificateAuthority/emailAddress=deviceCa@nokia.com
                serial:33:C6:F2:21:83:FC:CE:F7:77:DE:AE:CF:6D:B4:73:B8:E7:AD:B5:42
    Signature Algorithm: sha256WithRSAEncryption
    Signature Value:
        8b:2a:74:b9:17:42:61:a5:bd:e6:5b:71:cf:75:a2:dd:5b:76:
        b6:bb:2d:f6:e2:41:f1:e8:e8:da:27:79:b6:f9:fe:2d:fc:20:
        b1:c8:3f:d8:c4:0d:dd:1f:dd:fe:9a:20:33:5f:12:6e:5c:42:
        4b:93:b4:3d:49:f6:49:81:8c:56:eb:88:19:8c:05:04:b7:d2:
        ad:c9:2c:a7:6a:f6:60:c1:3e:6f:fb:95:99:27:96:df:d4:f4:
        e4:79:59:ab:50:41:1d:b4:d5:93:aa:1a:bf:d7:6d:dd:eb:87:
        c0:04:65:c8:b5:41:c8:af:9d:5d:50:f2:ee:7b:6c:8d:38:18:
        9b:46:34:f9:15:90:7f:bd:67:35:f8:0e:2f:62:cc:ca:d0:a0:
        93:05:c1:07:c7:3e:b5:6e:80:d7:b2:d7:1a:a7:2a:54:25:d9:
        85:43:b9:0c:dc:26:21:10:c4:5b:d7:db:ad:ab:fc:27:e0:ae:
        fc:b1:3b:aa:26:af:c9:1d:98:35:85:e0:26:85:8e:0a:d5:c0:
        1c:b8:cf:20:9b:5d:17:99:46:16:c1:65:73:cf:c6:63:49:49:
        08:26:d3:7a:44:1a:8d:8e:f6:db:fa:35:36:68:92:af:37:20:
        12:1e:4c:0e:b5:c4:6c:ce:c5:e1:74:cb:00:43:75:4f:6a:9c:
        c3:62:9a:ea
-----BEGIN CERTIFICATE-----
MIIEXjCCA0agAwIBAgIUM8byIYP8zvd33q7PbbRzuOettUMwDQYJKoZIhvcNAQEL
BQAwfTELMAkGA1UEBhMCVVMxCzAJBgNVBAgMAldBMQwwCgYDVQQKDANJUEQxCzAJ
BgNVBAsMAlJEMSMwIQYDVQQDDBpEZXZpY2VDZXJ0aWZpY2F0ZUF1dGhvcml0eTEh
MB8GCSqGSIb3DQEJARYSZGV2aWNlQ2FAbm9raWEuY29tMB4XDTIzMTAyNzE4MzAx
MloXDTI0MTAyNjE4MzAxMlowazELMAkGA1UEBhMCVVMxCzAJBgNVBAgMAldBMQww
CgYDVQQKDANJUEQxCzAJBgNVBAsMAlJEMRMwEQYDVQQDDApTZXJ2ZXJDZXJ0MR8w
HQYJKoZIhvcNAQkBFhBzZXJ2ZXJAbm9raWEuY29tMIIBIjANBgkqhkiG9w0BAQEF
AAOCAQ8AMIIBCgKCAQEAusLVXQIlisTsovuclPwyIVTjHc3kpgroPblcbV65WEnV
pLsGMRFKrEZDC08r0GYg9OCN4l8qRiMZ1TqUbLgbY2yjTIK3dFTFVj9H7W7jp8Gg
py+0sUBM0oGI/PXqO4qN4+sqFyZaa4IRVkKNNUmkcEVWSWpf5IPJFQc8vE/uNzG2
e4Fe9XXBBK/cbEqMy7ztMGxTEV6Sm9QA9AyQIc69Us4nhYEhdETzqUakjE4nHJ0S
gMFZZDZe9H6sE7DHu/85UnylVhcreYy/NMBteDdF9dQ+N9x22rOEchJijVSCQ4IB
DwtP5JxwC0W5oOd7Ocx7qgmOCwsjFfudZTUUIZqQ7QIDAQABo4HnMIHkMBsGA1Ud
EQQUMBKHBKwUFBWHBKwUFBaHBKwUFGMwHQYDVR0OBBYEFAoCul9/lTjbJwCPZzSV
8Os3MvooMIGlBgNVHSMEgZ0wgZqhgYGkfzB9MQswCQYDVQQGEwJVUzELMAkGA1UE
CAwCV0ExDDAKBgNVBAoMA0lQRDELMAkGA1UECwwCUkQxIzAhBgNVBAMMGkRldmlj
ZUNlcnRpZmljYXRlQXV0aG9yaXR5MSEwHwYJKoZIhvcNAQkBFhJkZXZpY2VDYUBu
b2tpYS5jb22CFDPG8iGD/M73d96uz220c7jnrbVCMA0GCSqGSIb3DQEBCwUAA4IB
AQCLKnS5F0Jhpb3mW3HPdaLdW3a2uy324kHx6OjaJ3m2+f4t/CCxyD/YxA3dH93+
miAzXxJuXEJLk7Q9SfZJgYxW64gZjAUEt9KtySynavZgwT5v+5WZJ5bf1PTkeVmr
UEEdtNWTqhq/123d64fABGXItUHIr51dUPLue2yNOBibRjT5FZB/vWc1+A4vYszK
0KCTBcEHxz61boDXstcapypUJdmFQ7kM3CYhEMRb19utq/wn4K78sTuqJq/JHZg1
heAmhY4K1cAcuM8gm10XmUYWwWVzz8ZjSUkIJtN6RBqNjvbb+jU2aJKvNyASHkwO
tcRszsXhdMsAQ3VPapzDYprq
-----END CERTIFICATE-----
